; Function Attrs: mustprogress uwtable
define hidden noundef zeroext i1 @_ZN4cvc58internal7options7ioutils32getBvPrintConstsAsIndexedSymbolsERSt8ios_base(ptr noundef nonnull align 8 dereferenceable(216) %0) local_unnamed_addr #6 {
  %2 = load i32, ptr @_ZN4cvc58internal7options7ioutilsL34s_iosBvPrintConstsAsIndexedSymbolsE, align 4, !tbaa !7
  %3 = tail call align 1 ptr @llvm.threadlocal.address.p0(ptr align 1 @_ZN4cvc58internal7options7ioutilsL38s_bvPrintConstsAsIndexedSymbolsDefaultE)
  %4 = load i8, ptr %3, align 1, !tbaa !3, !range !22, !noundef !23
  %5 = getelementptr inbounds nuw i8, ptr %0, i64 192
  %6 = load i32, ptr %5, align 8, !tbaa !9
  %7 = icmp ult i32 %2, %6
  br i1 %7, label %8, label %13

8:                                                ; preds = %1
  %9 = getelementptr inbounds nuw i8, ptr %0, i64 200
  %10 = load ptr, ptr %9, align 8, !tbaa !20
  %11 = sext i32 %2 to i64
  %12 = getelementptr inbounds %"struct.std::ios_base::_Words", ptr %10, i64 %11
  br label %_ZN4cvc58internal7options7ioutils12_GLOBAL__N_17getDataIbEET_RSt8ios_baseiS5_.exit

13:                                               ; preds = %1
  %14 = tail call noundef nonnull align 8 dereferenceable(16) ptr @_ZNSt8ios_base13_M_grow_wordsEib(ptr noundef nonnull align 8 dereferenceable(216) %0, i32 noundef %2, i1 noundef zeroext true)
  br label %_ZN4cvc58internal7options7ioutils12_GLOBAL__N_17getDataIbEET_RSt8ios_baseiS5_.exit

_ZN4cvc58internal7options7ioutils12_GLOBAL__N_17getDataIbEET_RSt8ios_baseiS5_.exit: ; preds = %8, %13
  %15 = phi ptr [ %12, %8 ], [ %14, %13 ]
  %16 = trunc nuw i8 %4 to i1
  %17 = getelementptr inbounds nuw i8, ptr %15, i64 8
  %18 = load i64, ptr %17, align 8, !tbaa !21
  %19 = icmp eq i64 %18, 0
  %20 = icmp ne i64 %18, 1024
  %.0.i = select i1 %19, i1 %16, i1 %20
  ret i1 %.0.i
}